; Function Attrs: mustprogress uwtable
define dso_local void @_ZN8V3Global9removeStdEv(ptr noundef nonnull readonly align 8 captures(none) dereferenceable(1896) %0) #3 align 2 {
  %2 = getelementptr inbounds nuw i8, ptr %0, i64 43
  %3 = load i8, ptr %2, align 1, !tbaa !158, !range !79, !noundef !80
  %4 = trunc nuw i8 %3 to i1
  br i1 %4, label %11, label %5

5:                                                ; preds = %1
  %6 = load ptr, ptr @v3Global, align 8, !tbaa !4
  %7 = getelementptr inbounds nuw i8, ptr %6, i64 184
  %8 = load ptr, ptr %7, align 8, !tbaa !159
  %.not = icmp eq ptr %8, null
  br i1 %.not, label %11, label %9

9:                                                ; preds = %5
  store ptr null, ptr %7, align 8, !tbaa !159
  %10 = tail call noundef ptr @_ZN7AstNode12unlinkFrBackEP10VNRelinker(ptr noundef nonnull align 8 dereferenceable(257) %8, ptr noundef null)
  tail call void @_ZN7AstNode10deleteTreeEv(ptr noundef nonnull align 8 dereferenceable(152) %10)
  br label %11

11:                                               ; preds = %5, %9, %1
  ret void
}